target datalayout = "e-m:e-p270:32:32-p271:32:32-p272:64:64-i64:64-i128:128-f80:128-n8:16:32:64-S128"
target triple = "x86_64-unknown-linux-gnu"

%"struct.node::AssertionInfo" = type { ptr, ptr, ptr }
%"class.node::StreamListener" = type { ptr, ptr, ptr }

@_ZZN4node14StreamListener21OnStreamAfterShutdownEPNS_12ShutdownWrapEiE4args = internal constant %"struct.node::AssertionInfo" { ptr @.str.46, ptr @.str.47, ptr @.str.48 }, align 8

; Function Attrs: mustprogress nounwind uwtable
define dso_local void @_ZN4node14StreamListener21OnStreamAfterShutdownEPNS_12ShutdownWrapEi(ptr noundef nonnull align 8 dereferenceable(24) %this, ptr noundef %w, i32 noundef %status) unnamed_addr #4 align 2 {
entry:
  %this.addr = alloca ptr, align 8
  %w.addr = alloca ptr, align 8
  %status.addr = alloca i32, align 4
  store ptr %this, ptr %this.addr, align 8
  store ptr %w, ptr %w.addr, align 8
  store i32 %status, ptr %status.addr, align 4
  %this1 = load ptr, ptr %this.addr, align 8
  br label %do.body

do.body:                                          ; preds = %entry
  %previous_listener_ = getelementptr inbounds %"class.node::StreamListener", ptr %this1, i32 0, i32 2
  %0 = load ptr, ptr %previous_listener_, align 8
  %cmp = icmp ne ptr %0, null
  %lnot = xor i1 %cmp, true
  %lnot2 = xor i1 %lnot, true
  %lnot3 = xor i1 %lnot2, true
  br i1 %lnot3, label %if.then, label %if.end

if.then:                                          ; preds = %do.body
  br label %do.body4

do.body4:                                         ; preds = %if.then
  call void @_ZN4node6AssertERKNS_13AssertionInfoE(ptr noundef nonnull align 8 dereferenceable(24) @_ZZN4node14StreamListener21OnStreamAfterShutdownEPNS_12ShutdownWrapEiE4args)
  call void @abort() #15
  unreachable

do.end:                                           ; No predecessors!
  br label %if.end

if.end:                                           ; preds = %do.end, %do.body
  br label %do.end5

do.end5:                                          ; preds = %if.end
  %previous_listener_6 = getelementptr inbounds %"class.node::StreamListener", ptr %this1, i32 0, i32 2
  %1 = load ptr, ptr %previous_listener_6, align 8
  %2 = load ptr, ptr %w.addr, align 8
  %3 = load i32, ptr %status.addr, align 4
  %vtable = load ptr, ptr %1, align 8
  %vfn = getelementptr inbounds ptr, ptr %vtable, i64 5
  %4 = load ptr, ptr %vfn, align 8
  call void %4(ptr noundef nonnull align 8 dereferenceable(24) %1, ptr noundef %2, i32 noundef %3)
  ret void
}